target datalayout = "e-m:e-p270:32:32-p271:32:32-p272:64:64-i64:64-i128:128-f80:128-n8:16:32:64-S128"
target triple = "x86_64-pc-linux-gnu"

%struct.oid_array = type { ptr, i64, i64, i32 }
%struct.shallow_info = type { ptr, ptr, i64, ptr, i64, ptr, ptr, ptr, ptr, ptr, ptr, i64 }

; Function Attrs: nounwind uwtable
define dso_local void @clear_shallow_info(ptr noundef %0) #0 {
  %2 = alloca ptr, align 8
  %3 = alloca i64, align 8
  store ptr %0, ptr %2, align 8, !tbaa !129
  %4 = load ptr, ptr %2, align 8, !tbaa !129
  %5 = getelementptr inbounds nuw %struct.shallow_info, ptr %4, i32 0, i32 6
  %6 = load ptr, ptr %5, align 8, !tbaa !144
  %7 = icmp ne ptr %6, null
  br i1 %7, label %8, label %32

8:                                                ; preds = %1
  call void @llvm.lifetime.start.p0(i64 8, ptr %3) #12
  store i64 0, ptr %3, align 8, !tbaa !56
  br label %9

9:                                                ; preds = %25, %8
  %10 = load i64, ptr %3, align 8, !tbaa !56
  %11 = load ptr, ptr %2, align 8, !tbaa !129
  %12 = getelementptr inbounds nuw %struct.shallow_info, ptr %11, i32 0, i32 0
  %13 = load ptr, ptr %12, align 8, !tbaa !131
  %14 = getelementptr inbounds nuw %struct.oid_array, ptr %13, i32 0, i32 1
  %15 = load i64, ptr %14, align 8, !tbaa !114
  %16 = icmp ult i64 %10, %15
  br i1 %16, label %18, label %17

17:                                               ; preds = %9
  call void @llvm.lifetime.end.p0(i64 8, ptr %3) #12
  br label %28

18:                                               ; preds = %9
  %19 = load ptr, ptr %2, align 8, !tbaa !129
  %20 = getelementptr inbounds nuw %struct.shallow_info, ptr %19, i32 0, i32 6
  %21 = load ptr, ptr %20, align 8, !tbaa !144
  %22 = load i64, ptr %3, align 8, !tbaa !56
  %23 = getelementptr inbounds nuw ptr, ptr %21, i64 %22
  %24 = load ptr, ptr %23, align 8, !tbaa !80
  call void @free(ptr noundef %24) #12
  br label %25

25:                                               ; preds = %18
  %26 = load i64, ptr %3, align 8, !tbaa !56
  %27 = add i64 %26, 1
  store i64 %27, ptr %3, align 8, !tbaa !56
  br label %9, !llvm.loop !145

28:                                               ; preds = %17
  %29 = load ptr, ptr %2, align 8, !tbaa !129
  %30 = getelementptr inbounds nuw %struct.shallow_info, ptr %29, i32 0, i32 6
  %31 = load ptr, ptr %30, align 8, !tbaa !144
  call void @free(ptr noundef %31) #12
  br label %32

32:                                               ; preds = %28, %1
  %33 = load ptr, ptr %2, align 8, !tbaa !129
  %34 = getelementptr inbounds nuw %struct.shallow_info, ptr %33, i32 0, i32 7
  %35 = load ptr, ptr %34, align 8, !tbaa !146
  call void @free(ptr noundef %35) #12
  %36 = load ptr, ptr %2, align 8, !tbaa !129
  %37 = getelementptr inbounds nuw %struct.shallow_info, ptr %36, i32 0, i32 8
  %38 = load ptr, ptr %37, align 8, !tbaa !147
  call void @free(ptr noundef %38) #12
  %39 = load ptr, ptr %2, align 8, !tbaa !129
  %40 = getelementptr inbounds nuw %struct.shallow_info, ptr %39, i32 0, i32 9
  %41 = load ptr, ptr %40, align 8, !tbaa !148
  call void @free(ptr noundef %41) #12
  %42 = load ptr, ptr %2, align 8, !tbaa !129
  %43 = getelementptr inbounds nuw %struct.shallow_info, ptr %42, i32 0, i32 1
  %44 = load ptr, ptr %43, align 8, !tbaa !135
  call void @free(ptr noundef %44) #12
  %45 = load ptr, ptr %2, align 8, !tbaa !129
  %46 = getelementptr inbounds nuw %struct.shallow_info, ptr %45, i32 0, i32 3
  %47 = load ptr, ptr %46, align 8, !tbaa !136
  call void @free(ptr noundef %47) #12
  ret void
}