; Function Attrs: nounwind uwtable
define dso_local void @clear_shallow_info(ptr noundef readonly captures(none) %0) local_unnamed_addr #0 {
  %2 = getelementptr inbounds nuw i8, ptr %0, i64 48
  %3 = load ptr, ptr %2, align 8, !tbaa !117
  %.not = icmp eq ptr %3, null
  br i1 %.not, label %16, label %.preheader

.preheader:                                       ; preds = %1
  %4 = load ptr, ptr %0, align 8, !tbaa !106
  %5 = getelementptr inbounds nuw i8, ptr %4, i64 8
  %6 = load i64, ptr %5, align 8, !tbaa !86
  %.not12 = icmp eq i64 %6, 0
  br i1 %.not12, label %._crit_edge, label %.lr.ph

._crit_edge.loopexit:                             ; preds = %.lr.ph
  %.pre = load ptr, ptr %2, align 8, !tbaa !117
  br label %._crit_edge

._crit_edge:                                      ; preds = %._crit_edge.loopexit, %.preheader
  %7 = phi ptr [ %.pre, %._crit_edge.loopexit ], [ %3, %.preheader ]
  tail call void @free(ptr noundef %7) #15
  br label %16

.lr.ph:                                           ; preds = %.preheader, %.lr.ph
  %.011 = phi i64 [ %11, %.lr.ph ], [ 0, %.preheader ]
  %8 = load ptr, ptr %2, align 8, !tbaa !117
  %9 = getelementptr inbounds nuw ptr, ptr %8, i64 %.011
  %10 = load ptr, ptr %9, align 8, !tbaa !66
  tail call void @free(ptr noundef %10) #15
  %11 = add nuw i64 %.011, 1
  %12 = load ptr, ptr %0, align 8, !tbaa !106
  %13 = getelementptr inbounds nuw i8, ptr %12, i64 8
  %14 = load i64, ptr %13, align 8, !tbaa !86
  %15 = icmp ult i64 %11, %14
  br i1 %15, label %.lr.ph, label %._crit_edge.loopexit, !llvm.loop !118

16:                                               ; preds = %._crit_edge, %1
  %17 = getelementptr inbounds nuw i8, ptr %0, i64 56
  %18 = load ptr, ptr %17, align 8, !tbaa !119
  tail call void @free(ptr noundef %18) #15
  %19 = getelementptr inbounds nuw i8, ptr %0, i64 64
  %20 = load ptr, ptr %19, align 8, !tbaa !120
  tail call void @free(ptr noundef %20) #15
  %21 = getelementptr inbounds nuw i8, ptr %0, i64 72
  %22 = load ptr, ptr %21, align 8, !tbaa !121
  tail call void @free(ptr noundef %22) #15
  %23 = getelementptr inbounds nuw i8, ptr %0, i64 8
  %24 = load ptr, ptr %23, align 8, !tbaa !111
  tail call void @free(ptr noundef %24) #15
  %25 = getelementptr inbounds nuw i8, ptr %0, i64 24
  %26 = load ptr, ptr %25, align 8, !tbaa !112
  tail call void @free(ptr noundef %26) #15
  ret void
}